; Function Attrs: nounwind uwtable
define void @lv_scale_set_major_tick_every(ptr noundef %0, i32 noundef %1) local_unnamed_addr #0 {
  %3 = getelementptr inbounds nuw i8, ptr %0, i64 108
  %4 = load i64, ptr %3, align 4
  %5 = shl i32 %1, 15
  %6 = and i32 %5, 1073709056
  %7 = zext nneg i32 %6 to i64
  %8 = and i64 %4, -1073709057
  %9 = or disjoint i64 %8, %7
  store i64 %9, ptr %3, align 4
  tail call void @lv_obj_invalidate(ptr noundef %0) #9
  ret void
}